target datalayout = "e-m:e-p270:32:32-p271:32:32-p272:64:64-i64:64-i128:128-f80:128-n8:16:32:64-S128"
target triple = "x86_64-pc-linux-gnu"

%class.vector = type { ptr }
%"class.opt::model_based_opt" = type { %class.vector.0, %class.vector.1, %class.vector.2, %class.svector, %class.vector, %class.svector.4, %class.svector.4, %class.svector.4, %class.svector.4, %class.svector.4, %class.svector.4, %class.svector.4, %class.svector.4, %class.vector.6 }
%class.vector.0 = type { ptr }
%class.vector.1 = type { ptr }
%class.vector.2 = type { ptr }
%class.svector = type { %class.vector.3 }
%class.vector.3 = type { ptr }
%class.svector.4 = type { %class.vector.5 }
%class.vector.5 = type { ptr }
%class.vector.6 = type { ptr }

; Function Attrs: inlinehint mustprogress nounwind uwtable
define linkonce_odr void @_ZSt4swapIPjENSt9enable_ifIXsr6__and_ISt6__not_ISt15__is_tuple_likeIT_EESt21is_move_constructibleIS4_ESt18is_move_assignableIS4_EEE5valueEvE4typeERS4_SD_(ptr noundef nonnull align 8 dereferenceable(8) %0, ptr noundef nonnull align 8 dereferenceable(8) %1) #8 comdat {
  %3 = alloca ptr, align 8
  %4 = alloca ptr, align 8
  %5 = alloca ptr, align 8
  store ptr %0, ptr %3, align 8, !tbaa !180
  store ptr %1, ptr %4, align 8, !tbaa !180
  call void @llvm.lifetime.start.p0(i64 8, ptr %5) #3
  %6 = load ptr, ptr %3, align 8, !tbaa !180
  %7 = load ptr, ptr %6, align 8, !tbaa !96
  store ptr %7, ptr %5, align 8, !tbaa !96
  %8 = load ptr, ptr %4, align 8, !tbaa !180
  %9 = load ptr, ptr %8, align 8, !tbaa !96
  %10 = load ptr, ptr %3, align 8, !tbaa !180
  store ptr %9, ptr %10, align 8, !tbaa !96
  %11 = load ptr, ptr %5, align 8, !tbaa !96
  %12 = load ptr, ptr %4, align 8, !tbaa !180
  store ptr %11, ptr %12, align 8, !tbaa !96
  call void @llvm.lifetime.end.p0(i64 8, ptr %5) #3
  ret void
}

; Function Attrs: mustprogress nounwind uwtable
define linkonce_odr hidden void @_ZN6vectorIjLb0EjEC2EOS0_(ptr noundef nonnull align 8 dereferenceable(8) %0, ptr noundef nonnull align 8 dereferenceable(8) %1) unnamed_addr #7 comdat align 2 {
  %3 = alloca ptr, align 8
  %4 = alloca ptr, align 8
  store ptr %0, ptr %3, align 8, !tbaa !99
  store ptr %1, ptr %4, align 8, !tbaa !99
  %5 = load ptr, ptr %3, align 8
  %6 = getelementptr inbounds nuw %class.vector.5, ptr %5, i32 0, i32 0
  store ptr null, ptr %6, align 8, !tbaa !101
  %7 = getelementptr inbounds nuw %class.vector.5, ptr %5, i32 0, i32 0
  %8 = load ptr, ptr %4, align 8, !tbaa !99
  %9 = getelementptr inbounds nuw %class.vector.5, ptr %8, i32 0, i32 0
  call void @_ZSt4swapIPjENSt9enable_ifIXsr6__and_ISt6__not_ISt15__is_tuple_likeIT_EESt21is_move_constructibleIS4_ESt18is_move_assignableIS4_EEE5valueEvE4typeERS4_SD_(ptr noundef nonnull align 8 dereferenceable(8) %7, ptr noundef nonnull align 8 dereferenceable(8) %9) #3
  ret void
}

; Function Attrs: inlinehint mustprogress nounwind uwtable
define linkonce_odr hidden void @_ZN7svectorIjjEC2EOS0_(ptr noundef nonnull align 8 dereferenceable(8) %0, ptr noundef nonnull align 8 dereferenceable(8) %1) unnamed_addr #8 comdat align 2 {
  %3 = alloca ptr, align 8
  %4 = alloca ptr, align 8
  store ptr %0, ptr %3, align 8, !tbaa !83
  store ptr %1, ptr %4, align 8, !tbaa !83
  %5 = load ptr, ptr %3, align 8
  %6 = load ptr, ptr %4, align 8, !tbaa !83
  call void @_ZN6vectorIjLb0EjEC2EOS0_(ptr noundef nonnull align 8 dereferenceable(8) %5, ptr noundef nonnull align 8 dereferenceable(8) %6) #3
  ret void
}

; Function Attrs: mustprogress nounwind uwtable
define linkonce_odr hidden void @_ZN6vectorIjLb0EjEC2Ev(ptr noundef nonnull align 8 dereferenceable(8) %0) unnamed_addr #7 comdat align 2 {
  %2 = alloca ptr, align 8
  store ptr %0, ptr %2, align 8, !tbaa !99
  %3 = load ptr, ptr %2, align 8
  %4 = getelementptr inbounds nuw %class.vector.5, ptr %3, i32 0, i32 0
  store ptr null, ptr %4, align 8, !tbaa !101
  ret void
}

; Function Attrs: mustprogress uwtable
define linkonce_odr hidden noundef nonnull align 8 dereferenceable(8) ptr @_ZN6vectorI7svectorIjjELb1EjE9push_backEOS1_(ptr noundef nonnull align 8 dereferenceable(8) %0, ptr noundef nonnull align 8 dereferenceable(8) %1) #4 comdat align 2 {
  %3 = alloca ptr, align 8
  %4 = alloca ptr, align 8
  store ptr %0, ptr %3, align 8, !tbaa !72
  store ptr %1, ptr %4, align 8, !tbaa !83
  %5 = load ptr, ptr %3, align 8
  %6 = getelementptr inbounds nuw %class.vector.1, ptr %5, i32 0, i32 0
  %7 = load ptr, ptr %6, align 8, !tbaa !74
  %8 = icmp eq ptr %7, null
  br i1 %8, label %19, label %9

9:                                                ; preds = %2
  %10 = getelementptr inbounds nuw %class.vector.1, ptr %5, i32 0, i32 0
  %11 = load ptr, ptr %10, align 8, !tbaa !74
  %12 = getelementptr inbounds i32, ptr %11, i64 -1
  %13 = load i32, ptr %12, align 4, !tbaa !16
  %14 = getelementptr inbounds nuw %class.vector.1, ptr %5, i32 0, i32 0
  %15 = load ptr, ptr %14, align 8, !tbaa !74
  %16 = getelementptr inbounds i32, ptr %15, i64 -2
  %17 = load i32, ptr %16, align 4, !tbaa !16
  %18 = icmp eq i32 %13, %17
  br i1 %18, label %19, label %20

19:                                               ; preds = %9, %2
  call void @_ZN6vectorI7svectorIjjELb1EjE13expand_vectorEv(ptr noundef nonnull align 8 dereferenceable(8) %5)
  br label %20

20:                                               ; preds = %19, %9
  %21 = getelementptr inbounds nuw %class.vector.1, ptr %5, i32 0, i32 0
  %22 = load ptr, ptr %21, align 8, !tbaa !74
  %23 = getelementptr inbounds nuw %class.vector.1, ptr %5, i32 0, i32 0
  %24 = load ptr, ptr %23, align 8, !tbaa !74
  %25 = getelementptr inbounds i32, ptr %24, i64 -1
  %26 = load i32, ptr %25, align 4, !tbaa !16
  %27 = zext i32 %26 to i64
  %28 = getelementptr inbounds nuw %class.svector.4, ptr %22, i64 %27
  %29 = load ptr, ptr %4, align 8, !tbaa !83
  call void @_ZN7svectorIjjEC2EOS0_(ptr noundef nonnull align 8 dereferenceable(8) %28, ptr noundef nonnull align 8 dereferenceable(8) %29) #3
  %30 = getelementptr inbounds nuw %class.vector.1, ptr %5, i32 0, i32 0
  %31 = load ptr, ptr %30, align 8, !tbaa !74
  %32 = getelementptr inbounds i32, ptr %31, i64 -1
  %33 = load i32, ptr %32, align 4, !tbaa !16
  %34 = add i32 %33, 1
  store i32 %34, ptr %32, align 4, !tbaa !16
  ret ptr %5
}

; Function Attrs: mustprogress nounwind uwtable
define linkonce_odr hidden void @_ZN7svectorIjjEC2Ev(ptr noundef nonnull align 8 dereferenceable(8) %0) unnamed_addr #7 comdat align 2 {
  %2 = alloca ptr, align 8
  store ptr %0, ptr %2, align 8, !tbaa !83
  %3 = load ptr, ptr %2, align 8
  call void @_ZN6vectorIjLb0EjEC2Ev(ptr noundef nonnull align 8 dereferenceable(8) %3) #3
  ret void
}

; Function Attrs: mustprogress uwtable
define linkonce_odr hidden noundef nonnull align 8 dereferenceable(8) ptr @_ZN6vectorIbLb0EjE9push_backERKb(ptr noundef nonnull align 8 dereferenceable(8) %0, ptr noundef nonnull align 1 dereferenceable(1) %1) #4 comdat align 2 {
  %3 = alloca ptr, align 8
  %4 = alloca ptr, align 8
  store ptr %0, ptr %3, align 8, !tbaa !91
  store ptr %1, ptr %4, align 8, !tbaa !117
  %5 = load ptr, ptr %3, align 8
  %6 = getelementptr inbounds nuw %class.vector.3, ptr %5, i32 0, i32 0
  %7 = load ptr, ptr %6, align 8, !tbaa !119
  %8 = icmp eq ptr %7, null
  br i1 %8, label %19, label %9

9:                                                ; preds = %2
  %10 = getelementptr inbounds nuw %class.vector.3, ptr %5, i32 0, i32 0
  %11 = load ptr, ptr %10, align 8, !tbaa !119
  %12 = getelementptr inbounds i32, ptr %11, i64 -1
  %13 = load i32, ptr %12, align 4, !tbaa !16
  %14 = getelementptr inbounds nuw %class.vector.3, ptr %5, i32 0, i32 0
  %15 = load ptr, ptr %14, align 8, !tbaa !119
  %16 = getelementptr inbounds i32, ptr %15, i64 -2
  %17 = load i32, ptr %16, align 4, !tbaa !16
  %18 = icmp eq i32 %13, %17
  br i1 %18, label %19, label %20

19:                                               ; preds = %9, %2
  call void @_ZN6vectorIbLb0EjE13expand_vectorEv(ptr noundef nonnull align 8 dereferenceable(8) %5)
  br label %20

20:                                               ; preds = %19, %9
  %21 = getelementptr inbounds nuw %class.vector.3, ptr %5, i32 0, i32 0
  %22 = load ptr, ptr %21, align 8, !tbaa !119
  %23 = getelementptr inbounds nuw %class.vector.3, ptr %5, i32 0, i32 0
  %24 = load ptr, ptr %23, align 8, !tbaa !119
  %25 = getelementptr inbounds i32, ptr %24, i64 -1
  %26 = load i32, ptr %25, align 4, !tbaa !16
  %27 = zext i32 %26 to i64
  %28 = getelementptr inbounds nuw i8, ptr %22, i64 %27
  %29 = load ptr, ptr %4, align 8, !tbaa !117
  %30 = load i8, ptr %29, align 1, !tbaa !28, !range !33, !noundef !34
  %31 = trunc i8 %30 to i1
  %32 = zext i1 %31 to i8
  store i8 %32, ptr %28, align 1, !tbaa !28
  %33 = getelementptr inbounds nuw %class.vector.3, ptr %5, i32 0, i32 0
  %34 = load ptr, ptr %33, align 8, !tbaa !119
  %35 = getelementptr inbounds i32, ptr %34, i64 -1
  %36 = load i32, ptr %35, align 4, !tbaa !16
  %37 = add i32 %36, 1
  store i32 %37, ptr %35, align 4, !tbaa !16
  ret ptr %5
}

; Function Attrs: mustprogress nounwind uwtable
define linkonce_odr hidden noundef i32 @_ZNK6vectorI8rationalLb1EjE4sizeEv(ptr noundef nonnull align 8 dereferenceable(8) %0) #7 comdat align 2 {
  %2 = alloca i32, align 4
  %3 = alloca ptr, align 8
  store ptr %0, ptr %3, align 8, !tbaa !77
  %4 = load ptr, ptr %3, align 8
  %5 = getelementptr inbounds nuw %class.vector.2, ptr %4, i32 0, i32 0
  %6 = load ptr, ptr %5, align 8, !tbaa !79
  %7 = icmp eq ptr %6, null
  br i1 %7, label %8, label %9

8:                                                ; preds = %1
  store i32 0, ptr %2, align 4
  br label %14

9:                                                ; preds = %1
  %10 = getelementptr inbounds nuw %class.vector.2, ptr %4, i32 0, i32 0
  %11 = load ptr, ptr %10, align 8, !tbaa !79
  %12 = getelementptr inbounds i32, ptr %11, i64 -1
  %13 = load i32, ptr %12, align 4, !tbaa !16
  store i32 %13, ptr %2, align 4
  br label %14

14:                                               ; preds = %9, %8
  %15 = load i32, ptr %2, align 4
  ret i32 %15
}

; Function Attrs: mustprogress uwtable
define hidden noundef i32 @_ZN3opt15model_based_opt7add_varERK8rationalb(ptr noundef nonnull align 8 dereferenceable(112) %0, ptr noundef nonnull align 8 dereferenceable(32) %1, i1 noundef zeroext %2) #4 align 2 personality ptr @__gxx_personality_v0 {
  %4 = alloca ptr, align 8
  %5 = alloca ptr, align 8
  %6 = alloca i8, align 1
  %7 = alloca i32, align 4
  %8 = alloca %class.svector.4, align 8
  %9 = alloca ptr, align 8
  %10 = alloca i32, align 4
  store ptr %0, ptr %4, align 8, !tbaa !66
  store ptr %1, ptr %5, align 8, !tbaa !37
  %11 = zext i1 %2 to i8
  store i8 %11, ptr %6, align 1, !tbaa !28
  %12 = load ptr, ptr %4, align 8
  call void @llvm.lifetime.start.p0(i64 4, ptr %7) #3
  %13 = getelementptr inbounds nuw %"class.opt::model_based_opt", ptr %12, i32 0, i32 2
  %14 = call noundef i32 @_ZNK6vectorI8rationalLb1EjE4sizeEv(ptr noundef nonnull align 8 dereferenceable(8) %13)
  store i32 %14, ptr %7, align 4, !tbaa !16
  %15 = getelementptr inbounds nuw %"class.opt::model_based_opt", ptr %12, i32 0, i32 2
  %16 = load ptr, ptr %5, align 8, !tbaa !37
  %17 = call noundef nonnull align 8 dereferenceable(8) ptr @_ZN6vectorI8rationalLb1EjE9push_backERKS0_(ptr noundef nonnull align 8 dereferenceable(8) %15, ptr noundef nonnull align 8 dereferenceable(32) %16)
  %18 = getelementptr inbounds nuw %"class.opt::model_based_opt", ptr %12, i32 0, i32 3
  %19 = call noundef nonnull align 8 dereferenceable(8) ptr @_ZN6vectorIbLb0EjE9push_backERKb(ptr noundef nonnull align 8 dereferenceable(8) %18, ptr noundef nonnull align 1 dereferenceable(1) %6)
  %20 = getelementptr inbounds nuw %"class.opt::model_based_opt", ptr %12, i32 0, i32 1
  call void @llvm.lifetime.start.p0(i64 8, ptr %8) #3
  call void @llvm.memset.p0.i64(ptr align 8 %8, i8 0, i64 8, i1 false)
  call void @_ZN7svectorIjjEC2Ev(ptr noundef nonnull align 8 dereferenceable(8) %8) #3
  %21 = invoke noundef nonnull align 8 dereferenceable(8) ptr @_ZN6vectorI7svectorIjjELb1EjE9push_backEOS1_(ptr noundef nonnull align 8 dereferenceable(8) %20, ptr noundef nonnull align 8 dereferenceable(8) %8)
          to label %22 unwind label %24

22:                                               ; preds = %3
  call void @_ZN6vectorIjLb0EjED2Ev(ptr noundef nonnull align 8 dereferenceable(8) %8) #3
  call void @llvm.lifetime.end.p0(i64 8, ptr %8) #3
  %23 = load i32, ptr %7, align 4, !tbaa !16
  call void @llvm.lifetime.end.p0(i64 4, ptr %7) #3
  ret i32 %23

24:                                               ; preds = %3
  %25 = landingpad { ptr, i32 }
          cleanup
  %26 = extractvalue { ptr, i32 } %25, 0
  store ptr %26, ptr %9, align 8
  %27 = extractvalue { ptr, i32 } %25, 1
  store i32 %27, ptr %10, align 4
  call void @_ZN6vectorIjLb0EjED2Ev(ptr noundef nonnull align 8 dereferenceable(8) %8) #3
  call void @llvm.lifetime.end.p0(i64 8, ptr %8) #3
  call void @llvm.lifetime.end.p0(i64 4, ptr %7) #3
  br label %28

28:                                               ; preds = %24
  %29 = load ptr, ptr %9, align 8
  %30 = load i32, ptr %10, align 4
  %31 = insertvalue { ptr, i32 } poison, ptr %29, 0
  %32 = insertvalue { ptr, i32 } %31, i32 %30, 1
  resume { ptr, i32 } %32
}