; Function Attrs: mustprogress uwtable
define hidden noundef i32 @_ZN3opt15model_based_opt7add_varERK8rationalb(ptr noundef nonnull align 8 dereferenceable(112) %0, ptr noundef nonnull align 8 dereferenceable(32) %1, i1 noundef zeroext %2) local_unnamed_addr #3 align 2 personality ptr @__gxx_personality_v0 {
  %4 = alloca %class.svector.4, align 8
  %5 = zext i1 %2 to i8
  %6 = getelementptr inbounds nuw i8, ptr %0, i64 16
  %7 = load ptr, ptr %6, align 8, !tbaa !70
  %8 = icmp eq ptr %7, null
  br i1 %8, label %_ZNK6vectorI8rationalLb1EjE4sizeEv.exit, label %9

9:                                                ; preds = %3
  %10 = getelementptr inbounds i8, ptr %7, i64 -4
  %11 = load i32, ptr %10, align 4, !tbaa !19
  br label %_ZNK6vectorI8rationalLb1EjE4sizeEv.exit

_ZNK6vectorI8rationalLb1EjE4sizeEv.exit:          ; preds = %3, %9
  %.0.i = phi i32 [ %11, %9 ], [ 0, %3 ]
  %12 = tail call noundef nonnull align 8 dereferenceable(8) ptr @_ZN6vectorI8rationalLb1EjE9push_backERKS0_(ptr noundef nonnull align 8 dereferenceable(8) %6, ptr noundef nonnull align 8 dereferenceable(32) %1)
  %13 = getelementptr inbounds nuw i8, ptr %0, i64 24
  %14 = load ptr, ptr %13, align 8, !tbaa !67
  %15 = icmp eq ptr %14, null
  br i1 %15, label %22, label %16

16:                                               ; preds = %_ZNK6vectorI8rationalLb1EjE4sizeEv.exit
  %17 = getelementptr inbounds i8, ptr %14, i64 -4
  %18 = load i32, ptr %17, align 4, !tbaa !19
  %19 = getelementptr inbounds i8, ptr %14, i64 -8
  %20 = load i32, ptr %19, align 4, !tbaa !19
  %21 = icmp eq i32 %18, %20
  br i1 %21, label %22, label %_ZN6vectorIbLb0EjE9push_backERKb.exit

22:                                               ; preds = %16, %_ZNK6vectorI8rationalLb1EjE4sizeEv.exit
  tail call void @_ZN6vectorIbLb0EjE13expand_vectorEv(ptr noundef nonnull align 8 dereferenceable(8) %13)
  %.pre.i = load ptr, ptr %13, align 8, !tbaa !67
  %.phi.trans.insert.i = getelementptr inbounds i8, ptr %.pre.i, i64 -4
  %.pre2.i = load i32, ptr %.phi.trans.insert.i, align 4, !tbaa !19
  br label %_ZN6vectorIbLb0EjE9push_backERKb.exit

_ZN6vectorIbLb0EjE9push_backERKb.exit:            ; preds = %16, %22
  %23 = phi i32 [ %.pre2.i, %22 ], [ %18, %16 ]
  %24 = phi ptr [ %.pre.i, %22 ], [ %14, %16 ]
  %25 = getelementptr inbounds i8, ptr %24, i64 -4
  %26 = zext i32 %23 to i64
  %27 = getelementptr inbounds nuw i8, ptr %24, i64 %26
  store i8 %5, ptr %27, align 1, !tbaa !99
  %28 = add i32 %23, 1
  store i32 %28, ptr %25, align 4, !tbaa !19
  %29 = getelementptr inbounds nuw i8, ptr %0, i64 8
  call void @llvm.lifetime.start.p0(i64 8, ptr nonnull %4) #22
  store ptr null, ptr %4, align 8, !tbaa !77
  %30 = load ptr, ptr %29, align 8, !tbaa !74
  %31 = icmp eq ptr %30, null
  br i1 %31, label %38, label %32

32:                                               ; preds = %_ZN6vectorIbLb0EjE9push_backERKb.exit
  %33 = getelementptr inbounds i8, ptr %30, i64 -4
  %34 = load i32, ptr %33, align 4, !tbaa !19
  %35 = getelementptr inbounds i8, ptr %30, i64 -8
  %36 = load i32, ptr %35, align 4, !tbaa !19
  %37 = icmp eq i32 %34, %36
  br i1 %37, label %38, label %_ZN6vectorIjLb0EjED2Ev.exit

38:                                               ; preds = %32, %_ZN6vectorIbLb0EjE9push_backERKb.exit
  invoke void @_ZN6vectorI7svectorIjjELb1EjE13expand_vectorEv(ptr noundef nonnull align 8 dereferenceable(8) %29)
          to label %.noexc unwind label %45

.noexc:                                           ; preds = %38
  %.pre.i4 = load ptr, ptr %29, align 8, !tbaa !74
  %.phi.trans.insert.i5 = getelementptr inbounds i8, ptr %.pre.i4, i64 -4
  %.pre2.i6 = load i32, ptr %.phi.trans.insert.i5, align 4, !tbaa !19
  br label %_ZN6vectorIjLb0EjED2Ev.exit

_ZN6vectorIjLb0EjED2Ev.exit:                      ; preds = %32, %.noexc
  %39 = phi i32 [ %.pre2.i6, %.noexc ], [ %34, %32 ]
  %40 = phi ptr [ %.pre.i4, %.noexc ], [ %30, %32 ]
  %41 = getelementptr inbounds i8, ptr %40, i64 -4
  %42 = zext i32 %39 to i64
  %43 = getelementptr inbounds nuw %class.svector.4, ptr %40, i64 %42
  store ptr null, ptr %43, align 8, !tbaa !181
  %44 = add i32 %39, 1
  store i32 %44, ptr %41, align 4, !tbaa !19
  call void @llvm.lifetime.end.p0(i64 8, ptr nonnull %4) #22
  ret i32 %.0.i

45:                                               ; preds = %38
  %46 = landingpad { ptr, i32 }
          cleanup
  call void @_ZN6vectorIjLb0EjED2Ev(ptr noundef nonnull align 8 dereferenceable(8) %4) #22
  call void @llvm.lifetime.end.p0(i64 8, ptr nonnull %4) #22
  resume { ptr, i32 } %46
}